; Function Attrs: nofree norecurse nosync nounwind memory(readwrite, inaccessiblemem: none) uwtable
define internal fastcc void @VLin2VectorArray_Serial(i32 noundef range(i32 2, 1) %0, double noundef %1, ptr noundef readonly captures(none) %2, ptr noundef readonly captures(none) %3, ptr noundef readonly captures(none) %4) unnamed_addr #7 {
  %6 = load ptr, ptr %2, align 8, !tbaa !67
  %7 = load ptr, ptr %6, align 8, !tbaa !54
  %8 = load i64, ptr %7, align 8, !tbaa !55
  %9 = icmp sgt i32 %0, 0
  %10 = icmp sgt i64 %8, 0
  %or.cond = select i1 %9, i1 %10, i1 false
  br i1 %or.cond, label %.lr.ph.us.preheader, label %._crit_edge24

.lr.ph.us.preheader:                              ; preds = %5
  %wide.trip.count = zext nneg i32 %0 to i64
  br label %.lr.ph.us

.lr.ph.us:                                        ; preds = %.lr.ph.us.preheader, %._crit_edge.us
  %indvars.iv = phi i64 [ 0, %.lr.ph.us.preheader ], [ %indvars.iv.next, %._crit_edge.us ]
  %11 = getelementptr inbounds nuw ptr, ptr %2, i64 %indvars.iv
  %12 = load ptr, ptr %11, align 8, !tbaa !67
  %13 = load ptr, ptr %12, align 8, !tbaa !54
  %14 = getelementptr inbounds nuw i8, ptr %13, i64 16
  %15 = load ptr, ptr %14, align 8, !tbaa !61
  %16 = getelementptr inbounds nuw ptr, ptr %3, i64 %indvars.iv
  %17 = load ptr, ptr %16, align 8, !tbaa !67
  %18 = load ptr, ptr %17, align 8, !tbaa !54
  %19 = getelementptr inbounds nuw i8, ptr %18, i64 16
  %20 = load ptr, ptr %19, align 8, !tbaa !61
  %21 = getelementptr inbounds nuw ptr, ptr %4, i64 %indvars.iv
  %22 = load ptr, ptr %21, align 8, !tbaa !67
  %23 = load ptr, ptr %22, align 8, !tbaa !54
  %24 = getelementptr inbounds nuw i8, ptr %23, i64 16
  %25 = load ptr, ptr %24, align 8, !tbaa !61
  br label %26

26:                                               ; preds = %.lr.ph.us, %26
  %.01920.us = phi i64 [ 0, %.lr.ph.us ], [ %34, %26 ]
  %27 = getelementptr inbounds nuw double, ptr %15, i64 %.01920.us
  %28 = load double, ptr %27, align 8, !tbaa !64
  %29 = getelementptr inbounds nuw double, ptr %20, i64 %.01920.us
  %30 = load double, ptr %29, align 8, !tbaa !64
  %31 = fneg double %30
  %32 = tail call double @llvm.fmuladd.f64(double %1, double %28, double %31)
  %33 = getelementptr inbounds nuw double, ptr %25, i64 %.01920.us
  store double %32, ptr %33, align 8, !tbaa !64
  %34 = add nuw nsw i64 %.01920.us, 1
  %exitcond.not = icmp eq i64 %34, %8
  br i1 %exitcond.not, label %._crit_edge.us, label %26

._crit_edge.us:                                   ; preds = %26
  %indvars.iv.next = add nuw nsw i64 %indvars.iv, 1
  %exitcond27.not = icmp eq i64 %indvars.iv.next, %wide.trip.count
  br i1 %exitcond27.not, label %._crit_edge24, label %.lr.ph.us

._crit_edge24:                                    ; preds = %._crit_edge.us, %5
  ret void
}